; Function Attrs: mustprogress nofree norecurse nosync nounwind willreturn memory(read, inaccessiblemem: write) uwtable
define dso_local noundef zeroext range(i8 0, 64) i8 @_ZNK4llvm6object19XCOFFTracebackTable17getNumOfGPRsSavedEv(ptr nocapture noundef nonnull readonly align 8 dereferenceable(288) %0) local_unnamed_addr #9 align 2 {
  %2 = load ptr, ptr %0, align 8
  %3 = getelementptr inbounds i8, ptr %2, i64 4
  call void @llvm.assume(i1 true) [ "align"(ptr %3, i64 1) ]
  %.0.copyload.i.i.i.i.i.i = load i32, ptr %3, align 1
  %4 = lshr i32 %.0.copyload.i.i.i.i.i.i, 8
  %5 = trunc i32 %4 to i8
  %6 = and i8 %5, 63
  ret i8 %6
}